target datalayout = "e-m:e-p270:32:32-p271:32:32-p272:64:64-i64:64-i128:128-f80:128-n8:16:32:64-S128"
target triple = "x86_64-pc-linux-gnu"

%struct._MRIStepInnerStepper = type { ptr, ptr, ptr, ptr, i32, i32, i32, double, double, ptr, ptr, i64, i64, i64, i64 }
%struct.SUNStepper_ = type { ptr, ptr, ptr, i32 }

; Function Attrs: nounwind uwtable
define i32 @mriStepInnerStepper_ResetSUNStepper(ptr noundef %0, double noundef %1, ptr noundef %2) #0 {
  %4 = alloca i32, align 4
  %5 = alloca ptr, align 8
  %6 = alloca double, align 8
  %7 = alloca ptr, align 8
  %8 = alloca ptr, align 8
  %9 = alloca i32, align 4
  %10 = alloca i32, align 4
  store ptr %0, ptr %5, align 8, !tbaa !11
  store double %1, ptr %6, align 8, !tbaa !7
  store ptr %2, ptr %7, align 8, !tbaa !9
  call void @llvm.lifetime.start.p0(i64 8, ptr %8) #8
  %11 = load ptr, ptr %5, align 8, !tbaa !11
  %12 = getelementptr inbounds nuw %struct._MRIStepInnerStepper, ptr %11, i32 0, i32 0
  %13 = load ptr, ptr %12, align 8, !tbaa !263
  store ptr %13, ptr %8, align 8, !tbaa !258
  call void @llvm.lifetime.start.p0(i64 4, ptr %9) #8
  %14 = load ptr, ptr %8, align 8, !tbaa !258
  %15 = load double, ptr %6, align 8, !tbaa !7
  %16 = load ptr, ptr %7, align 8, !tbaa !9
  %17 = call i32 @SUNStepper_Reset(ptr noundef %14, double noundef %15, ptr noundef %16)
  store i32 %17, ptr %9, align 4, !tbaa !15
  %18 = load ptr, ptr %8, align 8, !tbaa !258
  %19 = getelementptr inbounds nuw %struct.SUNStepper_, ptr %18, i32 0, i32 3
  %20 = load i32, ptr %19, align 8, !tbaa !264
  %21 = load ptr, ptr %5, align 8, !tbaa !11
  %22 = getelementptr inbounds nuw %struct._MRIStepInnerStepper, ptr %21, i32 0, i32 6
  store i32 %20, ptr %22, align 8, !tbaa !229
  %23 = load i32, ptr %9, align 4, !tbaa !15
  %24 = icmp ne i32 %23, 0
  br i1 %24, label %25, label %26

25:                                               ; preds = %3
  store i32 -51, ptr %4, align 4
  store i32 1, ptr %10, align 4
  br label %27

26:                                               ; preds = %3
  store i32 0, ptr %4, align 4
  store i32 1, ptr %10, align 4
  br label %27

27:                                               ; preds = %26, %25
  call void @llvm.lifetime.end.p0(i64 4, ptr %9) #8
  call void @llvm.lifetime.end.p0(i64 8, ptr %8) #8
  %28 = load i32, ptr %4, align 4
  ret i32 %28
}