; Function Attrs: nounwind uwtable
define range(i32 -51, 1) i32 @mriStepInnerStepper_ResetSUNStepper(ptr noundef captures(none) initializes((40, 44)) %0, double noundef %1, ptr noundef %2) #0 {
  %4 = load ptr, ptr %0, align 8, !tbaa !245
  %5 = tail call i32 @SUNStepper_Reset(ptr noundef %4, double noundef %1, ptr noundef %2) #14
  %6 = getelementptr inbounds nuw i8, ptr %4, i64 24
  %7 = load i32, ptr %6, align 8, !tbaa !246
  %8 = getelementptr inbounds nuw i8, ptr %0, i64 40
  store i32 %7, ptr %8, align 8, !tbaa !166
  %.not = icmp eq i32 %5, 0
  %. = select i1 %.not, i32 0, i32 -51
  ret i32 %.
}